; Function Attrs: mustprogress nounwind uwtable
define dso_local void @_ZN4llvm18DecodeMOVSLDUPMaskEjRNS_15SmallVectorImplIiEE(i32 noundef %0, ptr noundef nonnull align 8 dereferenceable(16) %1) local_unnamed_addr #0 {
  %3 = lshr i32 %0, 1
  %.not = icmp ult i32 %0, 2
  br i1 %.not, label %._crit_edge, label %.lr.ph

.lr.ph:                                           ; preds = %2
  %4 = getelementptr inbounds nuw i8, ptr %1, i64 16
  br label %5

5:                                                ; preds = %.lr.ph, %_ZN4llvm23SmallVectorTemplateBaseIiLb1EE9push_backEi.exit8
  %.09 = phi i32 [ 0, %.lr.ph ], [ %25, %_ZN4llvm23SmallVectorTemplateBaseIiLb1EE9push_backEi.exit8 ]
  %6 = shl nuw nsw i32 %.09, 1
  %7 = tail call noundef i64 @_ZNK4llvm15SmallVectorBaseIjE4sizeEv(ptr noundef nonnull align 8 dereferenceable(16) %1) #4
  %8 = add i64 %7, 1
  %9 = tail call noundef i64 @_ZNK4llvm15SmallVectorBaseIjE8capacityEv(ptr noundef nonnull align 8 dereferenceable(16) %1) #4
  %.not.i.i.i = icmp ugt i64 %8, %9
  br i1 %.not.i.i.i, label %10, label %_ZN4llvm23SmallVectorTemplateBaseIiLb1EE9push_backEi.exit

10:                                               ; preds = %5
  tail call void @_ZN4llvm15SmallVectorBaseIjE8grow_podEPvmm(ptr noundef nonnull align 8 dereferenceable(16) %1, ptr noundef nonnull %4, i64 noundef %8, i64 noundef 4) #4
  br label %_ZN4llvm23SmallVectorTemplateBaseIiLb1EE9push_backEi.exit

_ZN4llvm23SmallVectorTemplateBaseIiLb1EE9push_backEi.exit: ; preds = %5, %10
  %11 = load ptr, ptr %1, align 8
  %12 = tail call noundef i64 @_ZNK4llvm15SmallVectorBaseIjE4sizeEv(ptr noundef nonnull align 8 dereferenceable(16) %1) #4
  %13 = getelementptr inbounds i32, ptr %11, i64 %12
  store i32 %6, ptr %13, align 1
  %14 = tail call noundef i64 @_ZNK4llvm15SmallVectorBaseIjE4sizeEv(ptr noundef nonnull align 8 dereferenceable(16) %1) #4
  %15 = add i64 %14, 1
  tail call void @_ZN4llvm15SmallVectorBaseIjE8set_sizeEm(ptr noundef nonnull align 8 dereferenceable(16) %1, i64 noundef %15) #4
  %16 = tail call noundef i64 @_ZNK4llvm15SmallVectorBaseIjE4sizeEv(ptr noundef nonnull align 8 dereferenceable(16) %1) #4
  %17 = add i64 %16, 1
  %18 = tail call noundef i64 @_ZNK4llvm15SmallVectorBaseIjE8capacityEv(ptr noundef nonnull align 8 dereferenceable(16) %1) #4
  %.not.i.i.i7 = icmp ugt i64 %17, %18
  br i1 %.not.i.i.i7, label %19, label %_ZN4llvm23SmallVectorTemplateBaseIiLb1EE9push_backEi.exit8

19:                                               ; preds = %_ZN4llvm23SmallVectorTemplateBaseIiLb1EE9push_backEi.exit
  tail call void @_ZN4llvm15SmallVectorBaseIjE8grow_podEPvmm(ptr noundef nonnull align 8 dereferenceable(16) %1, ptr noundef nonnull %4, i64 noundef %17, i64 noundef 4) #4
  br label %_ZN4llvm23SmallVectorTemplateBaseIiLb1EE9push_backEi.exit8

_ZN4llvm23SmallVectorTemplateBaseIiLb1EE9push_backEi.exit8: ; preds = %_ZN4llvm23SmallVectorTemplateBaseIiLb1EE9push_backEi.exit, %19
  %20 = load ptr, ptr %1, align 8
  %21 = tail call noundef i64 @_ZNK4llvm15SmallVectorBaseIjE4sizeEv(ptr noundef nonnull align 8 dereferenceable(16) %1) #4
  %22 = getelementptr inbounds i32, ptr %20, i64 %21
  store i32 %6, ptr %22, align 1
  %23 = tail call noundef i64 @_ZNK4llvm15SmallVectorBaseIjE4sizeEv(ptr noundef nonnull align 8 dereferenceable(16) %1) #4
  %24 = add i64 %23, 1
  tail call void @_ZN4llvm15SmallVectorBaseIjE8set_sizeEm(ptr noundef nonnull align 8 dereferenceable(16) %1, i64 noundef %24) #4
  %25 = add nuw nsw i32 %.09, 1
  %exitcond.not = icmp eq i32 %25, %3
  br i1 %exitcond.not, label %._crit_edge, label %5, !llvm.loop !11

._crit_edge:                                      ; preds = %_ZN4llvm23SmallVectorTemplateBaseIiLb1EE9push_backEi.exit8, %2
  ret void
}